target datalayout = "e-m:e-p270:32:32-p271:32:32-p272:64:64-i64:64-i128:128-f80:128-n8:16:32:64-S128"
target triple = "x86_64-pc-linux-gnu"

%"class.std::__cxx11::list" = type { %"class.std::__cxx11::_List_base" }
%"class.std::__cxx11::_List_base" = type { %"struct.std::__cxx11::_List_base<QAction *, std::allocator<QAction *>>::_List_impl" }
%"struct.std::__cxx11::_List_base<QAction *, std::allocator<QAction *>>::_List_impl" = type { %"struct.std::__detail::_List_node_header" }
%"struct.std::__detail::_List_node_header" = type { %"struct.std::__detail::_List_node_base", i64 }
%"struct.std::__detail::_List_node_base" = type { ptr, ptr }
%class.EditSelectFactory = type { %class.QObject, %class.EditPlugin, ptr, ptr, ptr, ptr }
%class.QObject = type { ptr, %class.QScopedPointer }
%class.QScopedPointer = type { ptr }
%class.EditPlugin = type { %class.MeshLabPlugin, %"class.std::__cxx11::list" }
%class.MeshLabPlugin = type { ptr, i8, %class.QFileInfo }
%class.QFileInfo = type { %class.QSharedDataPointer }
%class.QSharedDataPointer = type { ptr }

; Function Attrs: mustprogress uwtable
define noundef ptr @_ZN17EditSelectFactory11getEditToolEPK7QAction(ptr noundef nonnull align 8 dereferenceable(96) %0, ptr noundef %1) unnamed_addr #5 align 2 personality ptr @__gxx_personality_v0 {
  %3 = alloca ptr, align 8
  %4 = alloca ptr, align 8
  %5 = alloca ptr, align 8
  %6 = alloca ptr, align 8
  %7 = alloca i32, align 4
  store ptr %0, ptr %4, align 8
  store ptr %1, ptr %5, align 8
  %8 = load ptr, ptr %4, align 8
  %9 = load ptr, ptr %5, align 8
  %10 = getelementptr inbounds %class.EditSelectFactory, ptr %8, i32 0, i32 2
  %11 = load ptr, ptr %10, align 8
  %12 = icmp eq ptr %9, %11
  br i1 %12, label %13, label %25

13:                                               ; preds = %2
  %14 = call noalias noundef nonnull ptr @_Znwm(i64 noundef 512) #15
  invoke void @_ZN16EditSelectPluginC1Ei(ptr noundef nonnull align 16 dereferenceable(501) %14, i32 noundef 0)
          to label %15 unwind label %21

15:                                               ; preds = %13
  %16 = icmp eq ptr %14, null
  br i1 %16, label %19, label %17

17:                                               ; preds = %15
  %18 = getelementptr inbounds i8, ptr %14, i64 16
  br label %19

19:                                               ; preds = %17, %15
  %20 = phi ptr [ %18, %17 ], [ null, %15 ]
  store ptr %20, ptr %3, align 8
  br label %80

21:                                               ; preds = %13
  %22 = landingpad { ptr, i32 }
          cleanup
  %23 = extractvalue { ptr, i32 } %22, 0
  store ptr %23, ptr %6, align 8
  %24 = extractvalue { ptr, i32 } %22, 1
  store i32 %24, ptr %7, align 4
  call void @_ZdlPv(ptr noundef %14) #16
  br label %82

25:                                               ; preds = %2
  %26 = load ptr, ptr %5, align 8
  %27 = getelementptr inbounds %class.EditSelectFactory, ptr %8, i32 0, i32 4
  %28 = load ptr, ptr %27, align 8
  %29 = icmp eq ptr %26, %28
  br i1 %29, label %30, label %42

30:                                               ; preds = %25
  %31 = call noalias noundef nonnull ptr @_Znwm(i64 noundef 512) #15
  invoke void @_ZN16EditSelectPluginC1Ei(ptr noundef nonnull align 16 dereferenceable(501) %31, i32 noundef 2)
          to label %32 unwind label %38

32:                                               ; preds = %30
  %33 = icmp eq ptr %31, null
  br i1 %33, label %36, label %34

34:                                               ; preds = %32
  %35 = getelementptr inbounds i8, ptr %31, i64 16
  br label %36

36:                                               ; preds = %34, %32
  %37 = phi ptr [ %35, %34 ], [ null, %32 ]
  store ptr %37, ptr %3, align 8
  br label %80

38:                                               ; preds = %30
  %39 = landingpad { ptr, i32 }
          cleanup
  %40 = extractvalue { ptr, i32 } %39, 0
  store ptr %40, ptr %6, align 8
  %41 = extractvalue { ptr, i32 } %39, 1
  store i32 %41, ptr %7, align 4
  call void @_ZdlPv(ptr noundef %31) #16
  br label %82

42:                                               ; preds = %25
  %43 = load ptr, ptr %5, align 8
  %44 = getelementptr inbounds %class.EditSelectFactory, ptr %8, i32 0, i32 3
  %45 = load ptr, ptr %44, align 8
  %46 = icmp eq ptr %43, %45
  br i1 %46, label %47, label %59

47:                                               ; preds = %42
  %48 = call noalias noundef nonnull ptr @_Znwm(i64 noundef 512) #15
  invoke void @_ZN16EditSelectPluginC1Ei(ptr noundef nonnull align 16 dereferenceable(501) %48, i32 noundef 1)
          to label %49 unwind label %55

49:                                               ; preds = %47
  %50 = icmp eq ptr %48, null
  br i1 %50, label %53, label %51

51:                                               ; preds = %49
  %52 = getelementptr inbounds i8, ptr %48, i64 16
  br label %53

53:                                               ; preds = %51, %49
  %54 = phi ptr [ %52, %51 ], [ null, %49 ]
  store ptr %54, ptr %3, align 8
  br label %80

55:                                               ; preds = %47
  %56 = landingpad { ptr, i32 }
          cleanup
  %57 = extractvalue { ptr, i32 } %56, 0
  store ptr %57, ptr %6, align 8
  %58 = extractvalue { ptr, i32 } %56, 1
  store i32 %58, ptr %7, align 4
  call void @_ZdlPv(ptr noundef %48) #16
  br label %82

59:                                               ; preds = %42
  %60 = load ptr, ptr %5, align 8
  %61 = getelementptr inbounds %class.EditSelectFactory, ptr %8, i32 0, i32 5
  %62 = load ptr, ptr %61, align 8
  %63 = icmp eq ptr %60, %62
  br i1 %63, label %64, label %76

64:                                               ; preds = %59
  %65 = call noalias noundef nonnull ptr @_Znwm(i64 noundef 512) #15
  invoke void @_ZN16EditSelectPluginC1Ei(ptr noundef nonnull align 16 dereferenceable(501) %65, i32 noundef 3)
          to label %66 unwind label %72

66:                                               ; preds = %64
  %67 = icmp eq ptr %65, null
  br i1 %67, label %70, label %68

68:                                               ; preds = %66
  %69 = getelementptr inbounds i8, ptr %65, i64 16
  br label %70

70:                                               ; preds = %68, %66
  %71 = phi ptr [ %69, %68 ], [ null, %66 ]
  store ptr %71, ptr %3, align 8
  br label %80

72:                                               ; preds = %64
  %73 = landingpad { ptr, i32 }
          cleanup
  %74 = extractvalue { ptr, i32 } %73, 0
  store ptr %74, ptr %6, align 8
  %75 = extractvalue { ptr, i32 } %73, 1
  store i32 %75, ptr %7, align 4
  call void @_ZdlPv(ptr noundef %65) #16
  br label %82

76:                                               ; preds = %59
  br label %77

77:                                               ; preds = %76
  br label %78

78:                                               ; preds = %77
  br label %79

79:                                               ; preds = %78
  store ptr null, ptr %3, align 8
  br label %80

80:                                               ; preds = %79, %70, %53, %36, %19
  %81 = load ptr, ptr %3, align 8
  ret ptr %81

82:                                               ; preds = %72, %55, %38, %21
  %83 = load ptr, ptr %6, align 8
  %84 = load i32, ptr %7, align 4
  %85 = insertvalue { ptr, i32 } poison, ptr %83, 0
  %86 = insertvalue { ptr, i32 } %85, i32 %84, 1
  resume { ptr, i32 } %86
}