; Function Attrs: mustprogress uwtable
define noundef ptr @_ZN17EditSelectFactory11getEditToolEPK7QAction(ptr nocapture noundef nonnull readonly align 8 dereferenceable(96) %0, ptr noundef readnone %1) unnamed_addr #9 align 2 personality ptr @__gxx_personality_v0 {
  %3 = getelementptr inbounds i8, ptr %0, i64 64
  %4 = load ptr, ptr %3, align 8
  %5 = icmp eq ptr %4, %1
  br i1 %5, label %6, label %12

6:                                                ; preds = %2
  %7 = tail call noalias noundef nonnull dereferenceable(512) ptr @_Znwm(i64 noundef 512) #20
  invoke void @_ZN16EditSelectPluginC1Ei(ptr noundef nonnull align 16 dereferenceable(501) %7, i32 noundef 0)
          to label %8 unwind label %10

8:                                                ; preds = %6
  %9 = getelementptr inbounds i8, ptr %7, i64 16
  br label %42

10:                                               ; preds = %6
  %11 = landingpad { ptr, i32 }
          cleanup
  br label %43

12:                                               ; preds = %2
  %13 = getelementptr inbounds i8, ptr %0, i64 80
  %14 = load ptr, ptr %13, align 8
  %15 = icmp eq ptr %14, %1
  br i1 %15, label %16, label %22

16:                                               ; preds = %12
  %17 = tail call noalias noundef nonnull dereferenceable(512) ptr @_Znwm(i64 noundef 512) #20
  invoke void @_ZN16EditSelectPluginC1Ei(ptr noundef nonnull align 16 dereferenceable(501) %17, i32 noundef 2)
          to label %18 unwind label %20

18:                                               ; preds = %16
  %19 = getelementptr inbounds i8, ptr %17, i64 16
  br label %42

20:                                               ; preds = %16
  %21 = landingpad { ptr, i32 }
          cleanup
  br label %43

22:                                               ; preds = %12
  %23 = getelementptr inbounds i8, ptr %0, i64 72
  %24 = load ptr, ptr %23, align 8
  %25 = icmp eq ptr %24, %1
  br i1 %25, label %26, label %32

26:                                               ; preds = %22
  %27 = tail call noalias noundef nonnull dereferenceable(512) ptr @_Znwm(i64 noundef 512) #20
  invoke void @_ZN16EditSelectPluginC1Ei(ptr noundef nonnull align 16 dereferenceable(501) %27, i32 noundef 1)
          to label %28 unwind label %30

28:                                               ; preds = %26
  %29 = getelementptr inbounds i8, ptr %27, i64 16
  br label %42

30:                                               ; preds = %26
  %31 = landingpad { ptr, i32 }
          cleanup
  br label %43

32:                                               ; preds = %22
  %33 = getelementptr inbounds i8, ptr %0, i64 88
  %34 = load ptr, ptr %33, align 8
  %35 = icmp eq ptr %34, %1
  br i1 %35, label %36, label %42

36:                                               ; preds = %32
  %37 = tail call noalias noundef nonnull dereferenceable(512) ptr @_Znwm(i64 noundef 512) #20
  invoke void @_ZN16EditSelectPluginC1Ei(ptr noundef nonnull align 16 dereferenceable(501) %37, i32 noundef 3)
          to label %38 unwind label %40

38:                                               ; preds = %36
  %39 = getelementptr inbounds i8, ptr %37, i64 16
  br label %42

40:                                               ; preds = %36
  %41 = landingpad { ptr, i32 }
          cleanup
  br label %43

42:                                               ; preds = %32, %38, %28, %18, %8
  %.011 = phi ptr [ %9, %8 ], [ %19, %18 ], [ %29, %28 ], [ %39, %38 ], [ null, %32 ]
  ret ptr %.011

43:                                               ; preds = %40, %30, %20, %10
  %.sink = phi ptr [ %37, %40 ], [ %27, %30 ], [ %17, %20 ], [ %7, %10 ]
  %.pn = phi { ptr, i32 } [ %41, %40 ], [ %31, %30 ], [ %21, %20 ], [ %11, %10 ]
  tail call void @_ZdlPv(ptr noundef nonnull %.sink) #16
  resume { ptr, i32 } %.pn
}